target datalayout = "e-m:e-p270:32:32-p271:32:32-p272:64:64-i64:64-i128:128-f80:128-n8:16:32:64-S128"
target triple = "x86_64-pc-linux-gnu"

%struct.GetBitContext = type { ptr, ptr, i32, i32, i32 }
%struct.AVCodecContext = type { ptr, i32, i32, ptr, i32, i32, ptr, ptr, ptr, i64, i32, i32, ptr, i32, %struct.AVRational, %struct.AVRational, %struct.AVRational, i32, i32, i32, i32, i32, %struct.AVRational, i32, i32, i32, i32, i32, i32, i32, i32, i32, i32, i32, ptr, ptr, i32, float, float, float, float, float, float, float, float, float, i32, i32, i32, i32, i32, i32, i32, i32, i32, i32, i32, i32, ptr, ptr, ptr, i32, i32, i32, i32, i32, i32, i32, i32, i32, i32, %struct.AVChannelLayout, i32, i32, i32, i32, i32, i32, i32, i32, ptr, i32, i32, i32, float, float, i32, i32, i32, i32, i32, ptr, i64, i64, float, float, i32, i32, ptr, ptr, i32, i32, i32, i32, i32, ptr, ptr, ptr, ptr, i32, i32, [8 x i64], i32, i32, i32, i32, i32, i32, i32, ptr, ptr, i32, i32, i32, i32, i32, i32, i32, i32, i32, i32, ptr, ptr, i32, i32, ptr, ptr, ptr, ptr, i32, i32, i64, i32, i32, i64, ptr, i64, ptr, i32, ptr, i32 }
%struct.AVRational = type { i32, i32 }
%struct.AVChannelLayout = type { i32, i32, %union.anon, ptr }
%union.anon = type { i64 }
%struct.RV34DecContext = type { %struct.MpegEncContext, %struct.RV34DSPContext, ptr, ptr, i32, ptr, ptr, ptr, %struct.H264PredContext, %struct.SliceInfo, ptr, i32, i32, i32, i32, [4 x [2 x i32]], i32, i32, i32, i32, i32, i32, i32, i32, i32, i32, i32, i32, ptr, ptr, ptr, [12 x i32], [2 x ptr], [4 x ptr], ptr, ptr, ptr, ptr, ptr }
%struct.MpegEncContext = type { ptr, i32, i32, i32, [12 x i32], i32, %struct.ScanTable, %struct.ScanTable, [64 x i8], [64 x i8], ptr, ptr, i32, i32, i32, i32, i32, i32, i32, i32, i32, i32, i32, i32, i32, i32, i32, i32, i32, i32, i32, i32, i64, i64, ptr, %struct.BufferPoolContext, i32, i32, %union.anon.0, i32, %struct.MPVWorkPicture, %struct.MPVWorkPicture, %struct.MPVWorkPicture, i32, [3 x i32], ptr, [3 x ptr], ptr, ptr, ptr, ptr, ptr, ptr, [3 x ptr], i32, ptr, ptr, ptr, ptr, %struct.ScratchpadContext, i32, i32, i32, i32, i32, i32, %struct.BlockDSPContext, %struct.H264ChromaContext, %struct.HpelDSPContext, %struct.IDCTDSPContext, %struct.QpelDSPContext, %struct.VideoDSPContext, %struct.H263DSPContext, ptr, [2 x [2 x ptr]], i32, i32, [2 x [4 x [2 x i32]]], [2 x [2 x i32]], [2 x [2 x [2 x i32]]], [2 x [64 x i16]], i32, i32, i32, i32, i32, [6 x i32], [6 x i32], [3 x ptr], ptr, [64 x i16], [64 x i16], [64 x i16], [64 x i16], i32, i32, %struct.GetBitContext, i32, i32, i32, i32, i32, i32, i32, i32, i32, i32, i32, i32, i32, i32, i32, i64, i64, i16, i16, i16, i16, i32, i32, i32, i32, i32, i32, i32, i32, i32, [3 x i32], i32, i32, i32, i32, i32, i32, %struct.GetBitContext, i32, [2 x [2 x i32]], i32, i32, i32, i32, i32, i32, i32, i32, i32, i32, i32, i32, i32, i32, [2 x i32], i32, i32, ptr, ptr, ptr, ptr, ptr, i32, i32, %struct.ERContext }
%struct.ScanTable = type { ptr, [64 x i8], [64 x i8] }
%struct.BufferPoolContext = type { ptr, ptr, ptr, ptr, ptr, i32, i32, i32 }
%union.anon.0 = type { [32 x ptr] }
%struct.MPVWorkPicture = type { [3 x ptr], [3 x i64], ptr, ptr, [2 x ptr], ptr, ptr, [2 x ptr], i32 }
%struct.ScratchpadContext = type { ptr, ptr, %union.anon.1, i32 }
%union.anon.1 = type { ptr }
%struct.BlockDSPContext = type { ptr, ptr, [2 x ptr] }
%struct.H264ChromaContext = type { [4 x ptr], [4 x ptr] }
%struct.HpelDSPContext = type { [4 x [4 x ptr]], [4 x [4 x ptr]], [4 x [4 x ptr]], [4 x ptr] }
%struct.IDCTDSPContext = type { ptr, ptr, ptr, ptr, ptr, ptr, [64 x i8], i32, i32 }
%struct.QpelDSPContext = type { [2 x [16 x ptr]], [2 x [16 x ptr]], [2 x [16 x ptr]] }
%struct.VideoDSPContext = type { ptr, ptr }
%struct.H263DSPContext = type { ptr, ptr }
%struct.ERContext = type { ptr, ptr, i32, ptr, i32, i32, i32, i64, i64, i32, i32, ptr, ptr, [3 x ptr], ptr, ptr, [2 x [4 x [2 x i32]]], %struct.ERPicture, %struct.ERPicture, %struct.ERPicture, [2 x ptr], [2 x ptr], i16, i16, i32, i32, ptr, ptr }
%struct.ERPicture = type { ptr, ptr, ptr, [2 x ptr], [2 x ptr], ptr, i32 }
%struct.RV34DSPContext = type { [4 x [16 x ptr]], [4 x [16 x ptr]], [3 x ptr], [3 x ptr], [2 x [2 x ptr]], ptr, ptr, ptr, ptr, [2 x ptr], [2 x ptr], [2 x ptr] }
%struct.H264PredContext = type { [15 x ptr], [12 x ptr], [11 x ptr], [9 x ptr], [2 x ptr], [2 x ptr], [2 x ptr], [3 x ptr], [3 x ptr] }
%struct.SliceInfo = type { i32, i32, i32, i32, i32, i32, i32, i32 }
%struct.MPVPicture = type { ptr, ptr, ptr, [2 x ptr], [2 x ptr], ptr, ptr, ptr, [2 x ptr], ptr, i32, i32, i32, i32, i32, i32, i32, i32, i32, i32, %struct.ThreadProgress }
%struct.ThreadProgress = type { i32, i32, %union.pthread_mutex_t, %union.pthread_cond_t }
%union.pthread_mutex_t = type { %struct.__pthread_mutex_s }
%struct.__pthread_mutex_s = type { i32, i32, i32, i32, i32, i16, i16, %struct.__pthread_internal_list }
%struct.__pthread_internal_list = type { ptr, ptr }
%union.pthread_cond_t = type { %struct.__pthread_cond_s }
%struct.__pthread_cond_s = type { %union.__atomic_wide_counter, %union.__atomic_wide_counter, [2 x i32], [2 x i32], i32, i32, [2 x i32] }
%union.__atomic_wide_counter = type { i64 }

; Function Attrs: nounwind uwtable
define internal i32 @finish_frame(ptr noundef %0, ptr noundef %1) #0 {
  %3 = alloca i32, align 4
  %4 = alloca ptr, align 8
  %5 = alloca ptr, align 8
  %6 = alloca ptr, align 8
  %7 = alloca ptr, align 8
  %8 = alloca i32, align 4
  %9 = alloca i32, align 4
  %10 = alloca i32, align 4
  store ptr %0, ptr %4, align 8, !tbaa !21
  store ptr %1, ptr %5, align 8, !tbaa !95
  call void @llvm.lifetime.start.p0(i64 8, ptr %6) #12
  %11 = load ptr, ptr %4, align 8, !tbaa !21
  %12 = getelementptr inbounds nuw %struct.AVCodecContext, ptr %11, i32 0, i32 6
  %13 = load ptr, ptr %12, align 8, !tbaa !23
  store ptr %13, ptr %6, align 8, !tbaa !41
  call void @llvm.lifetime.start.p0(i64 8, ptr %7) #12
  %14 = load ptr, ptr %6, align 8, !tbaa !41
  %15 = getelementptr inbounds nuw %struct.RV34DecContext, ptr %14, i32 0, i32 0
  store ptr %15, ptr %7, align 8, !tbaa !43
  call void @llvm.lifetime.start.p0(i64 4, ptr %8) #12
  store i32 0, ptr %8, align 4, !tbaa !9
  call void @llvm.lifetime.start.p0(i64 4, ptr %9) #12
  %16 = load ptr, ptr %7, align 8, !tbaa !43
  %17 = getelementptr inbounds nuw %struct.MpegEncContext, ptr %16, i32 0, i32 161
  call void @ff_er_frame_end(ptr noundef %17, ptr noundef null)
  %18 = load ptr, ptr %7, align 8, !tbaa !43
  call void @ff_mpv_frame_end(ptr noundef %18)
  %19 = load ptr, ptr %7, align 8, !tbaa !43
  %20 = getelementptr inbounds nuw %struct.MpegEncContext, ptr %19, i32 0, i32 97
  store i32 0, ptr %20, align 8, !tbaa !112
  %21 = load ptr, ptr %7, align 8, !tbaa !43
  %22 = getelementptr inbounds nuw %struct.MpegEncContext, ptr %21, i32 0, i32 10
  %23 = load ptr, ptr %22, align 8, !tbaa !119
  %24 = getelementptr inbounds nuw %struct.AVCodecContext, ptr %23, i32 0, i32 118
  %25 = load i32, ptr %24, align 8, !tbaa !135
  %26 = and i32 %25, 1
  %27 = icmp ne i32 %26, 0
  br i1 %27, label %28, label %34

28:                                               ; preds = %2
  %29 = load ptr, ptr %7, align 8, !tbaa !43
  %30 = getelementptr inbounds nuw %struct.MpegEncContext, ptr %29, i32 0, i32 42
  %31 = getelementptr inbounds nuw %struct.MPVWorkPicture, ptr %30, i32 0, i32 2
  %32 = load ptr, ptr %31, align 8, !tbaa !113
  %33 = getelementptr inbounds nuw %struct.MPVPicture, ptr %32, i32 0, i32 20
  call void @ff_thread_progress_report(ptr noundef %33, i32 noundef 2147483647)
  br label %34

34:                                               ; preds = %28, %2
  %35 = load ptr, ptr %7, align 8, !tbaa !43
  %36 = getelementptr inbounds nuw %struct.MpegEncContext, ptr %35, i32 0, i32 62
  %37 = load i32, ptr %36, align 8, !tbaa !121
  %38 = icmp eq i32 %37, 3
  br i1 %38, label %39, label %65

39:                                               ; preds = %34
  %40 = load ptr, ptr %5, align 8, !tbaa !95
  %41 = load ptr, ptr %7, align 8, !tbaa !43
  %42 = getelementptr inbounds nuw %struct.MpegEncContext, ptr %41, i32 0, i32 42
  %43 = getelementptr inbounds nuw %struct.MPVWorkPicture, ptr %42, i32 0, i32 2
  %44 = load ptr, ptr %43, align 8, !tbaa !113
  %45 = getelementptr inbounds nuw %struct.MPVPicture, ptr %44, i32 0, i32 0
  %46 = load ptr, ptr %45, align 8, !tbaa !104
  %47 = call i32 @av_frame_ref(ptr noundef %40, ptr noundef %46)
  store i32 %47, ptr %9, align 4, !tbaa !9
  %48 = icmp slt i32 %47, 0
  br i1 %48, label %49, label %51

49:                                               ; preds = %39
  %50 = load i32, ptr %9, align 4, !tbaa !9
  store i32 %50, ptr %3, align 4
  store i32 1, ptr %10, align 4
  br label %100

51:                                               ; preds = %39
  %52 = load ptr, ptr %7, align 8, !tbaa !43
  %53 = load ptr, ptr %7, align 8, !tbaa !43
  %54 = getelementptr inbounds nuw %struct.MpegEncContext, ptr %53, i32 0, i32 42
  %55 = getelementptr inbounds nuw %struct.MPVWorkPicture, ptr %54, i32 0, i32 2
  %56 = load ptr, ptr %55, align 8, !tbaa !113
  %57 = load ptr, ptr %5, align 8, !tbaa !95
  call void @ff_print_debug_info(ptr noundef %52, ptr noundef %56, ptr noundef %57)
  %58 = load ptr, ptr %7, align 8, !tbaa !43
  %59 = load ptr, ptr %5, align 8, !tbaa !95
  %60 = load ptr, ptr %7, align 8, !tbaa !43
  %61 = getelementptr inbounds nuw %struct.MpegEncContext, ptr %60, i32 0, i32 42
  %62 = getelementptr inbounds nuw %struct.MPVWorkPicture, ptr %61, i32 0, i32 2
  %63 = load ptr, ptr %62, align 8, !tbaa !113
  %64 = call i32 @ff_mpv_export_qp_table(ptr noundef %58, ptr noundef %59, ptr noundef %63, i32 noundef 0)
  store i32 1, ptr %8, align 4, !tbaa !9
  br label %98

65:                                               ; preds = %34
  %66 = load ptr, ptr %7, align 8, !tbaa !43
  %67 = getelementptr inbounds nuw %struct.MpegEncContext, ptr %66, i32 0, i32 40
  %68 = getelementptr inbounds nuw %struct.MPVWorkPicture, ptr %67, i32 0, i32 2
  %69 = load ptr, ptr %68, align 8, !tbaa !109
  %70 = icmp ne ptr %69, null
  br i1 %70, label %71, label %97

71:                                               ; preds = %65
  %72 = load ptr, ptr %5, align 8, !tbaa !95
  %73 = load ptr, ptr %7, align 8, !tbaa !43
  %74 = getelementptr inbounds nuw %struct.MpegEncContext, ptr %73, i32 0, i32 40
  %75 = getelementptr inbounds nuw %struct.MPVWorkPicture, ptr %74, i32 0, i32 2
  %76 = load ptr, ptr %75, align 8, !tbaa !109
  %77 = getelementptr inbounds nuw %struct.MPVPicture, ptr %76, i32 0, i32 0
  %78 = load ptr, ptr %77, align 8, !tbaa !104
  %79 = call i32 @av_frame_ref(ptr noundef %72, ptr noundef %78)
  store i32 %79, ptr %9, align 4, !tbaa !9
  %80 = icmp slt i32 %79, 0
  br i1 %80, label %81, label %83

81:                                               ; preds = %71
  %82 = load i32, ptr %9, align 4, !tbaa !9
  store i32 %82, ptr %3, align 4
  store i32 1, ptr %10, align 4
  br label %100

83:                                               ; preds = %71
  %84 = load ptr, ptr %7, align 8, !tbaa !43
  %85 = load ptr, ptr %7, align 8, !tbaa !43
  %86 = getelementptr inbounds nuw %struct.MpegEncContext, ptr %85, i32 0, i32 40
  %87 = getelementptr inbounds nuw %struct.MPVWorkPicture, ptr %86, i32 0, i32 2
  %88 = load ptr, ptr %87, align 8, !tbaa !109
  %89 = load ptr, ptr %5, align 8, !tbaa !95
  call void @ff_print_debug_info(ptr noundef %84, ptr noundef %88, ptr noundef %89)
  %90 = load ptr, ptr %7, align 8, !tbaa !43
  %91 = load ptr, ptr %5, align 8, !tbaa !95
  %92 = load ptr, ptr %7, align 8, !tbaa !43
  %93 = getelementptr inbounds nuw %struct.MpegEncContext, ptr %92, i32 0, i32 40
  %94 = getelementptr inbounds nuw %struct.MPVWorkPicture, ptr %93, i32 0, i32 2
  %95 = load ptr, ptr %94, align 8, !tbaa !109
  %96 = call i32 @ff_mpv_export_qp_table(ptr noundef %90, ptr noundef %91, ptr noundef %95, i32 noundef 0)
  store i32 1, ptr %8, align 4, !tbaa !9
  br label %97

97:                                               ; preds = %83, %65
  br label %98

98:                                               ; preds = %97, %51
  %99 = load i32, ptr %8, align 4, !tbaa !9
  store i32 %99, ptr %3, align 4
  store i32 1, ptr %10, align 4
  br label %100

100:                                              ; preds = %98, %81, %49
  call void @llvm.lifetime.end.p0(i64 4, ptr %9) #12
  call void @llvm.lifetime.end.p0(i64 4, ptr %8) #12
  call void @llvm.lifetime.end.p0(i64 8, ptr %7) #12
  call void @llvm.lifetime.end.p0(i64 8, ptr %6) #12
  %101 = load i32, ptr %3, align 4
  ret i32 %101
}