; Function Attrs: nounwind uwtable
define internal fastcc range(i32 -2147483648, 2) i32 @finish_frame(ptr %.32.val, ptr noundef %0) unnamed_addr #4 {
  %2 = getelementptr inbounds nuw i8, ptr %.32.val, i64 4336
  tail call void @ff_er_frame_end(ptr noundef nonnull %2, ptr noundef null) #15
  tail call void @ff_mpv_frame_end(ptr noundef %.32.val) #15
  %3 = getelementptr inbounds nuw i8, ptr %.32.val, i64 4000
  store i32 0, ptr %3, align 8, !tbaa !105
  %4 = getelementptr inbounds nuw i8, ptr %.32.val, i64 472
  %5 = load ptr, ptr %4, align 8, !tbaa !112
  %6 = getelementptr inbounds nuw i8, ptr %5, i64 664
  %7 = load i32, ptr %6, align 8, !tbaa !128
  %8 = and i32 %7, 1
  %.not = icmp eq i32 %8, 0
  br i1 %.not, label %13, label %9

9:                                                ; preds = %1
  %10 = getelementptr inbounds nuw i8, ptr %.32.val, i64 1208
  %11 = load ptr, ptr %10, align 8, !tbaa !106
  %12 = getelementptr inbounds nuw i8, ptr %11, i64 144
  tail call void @ff_thread_progress_report(ptr noundef nonnull %12, i32 noundef 2147483647) #15
  br label %13

13:                                               ; preds = %9, %1
  %14 = getelementptr inbounds nuw i8, ptr %.32.val, i64 1480
  %15 = load i32, ptr %14, align 8, !tbaa !114
  %16 = icmp eq i32 %15, 3
  br i1 %16, label %17, label %23

17:                                               ; preds = %13
  %18 = getelementptr inbounds nuw i8, ptr %.32.val, i64 1208
  %19 = load ptr, ptr %18, align 8, !tbaa !106
  %20 = load ptr, ptr %19, align 8, !tbaa !96
  %21 = tail call i32 @av_frame_ref(ptr noundef %0, ptr noundef %20) #15
  %22 = icmp slt i32 %21, 0
  br i1 %22, label %31, label %.sink.split

23:                                               ; preds = %13
  %24 = getelementptr inbounds nuw i8, ptr %.32.val, i64 968
  %25 = load ptr, ptr %24, align 8, !tbaa !102
  %.not32 = icmp eq ptr %25, null
  br i1 %.not32, label %31, label %26

26:                                               ; preds = %23
  %27 = load ptr, ptr %25, align 8, !tbaa !96
  %28 = tail call i32 @av_frame_ref(ptr noundef %0, ptr noundef %27) #15
  %29 = icmp slt i32 %28, 0
  br i1 %29, label %31, label %.sink.split

.sink.split:                                      ; preds = %26, %17
  %.sink1.in = phi ptr [ %18, %17 ], [ %24, %26 ]
  %.sink1 = load ptr, ptr %.sink1.in, align 8, !tbaa !188
  tail call void @ff_print_debug_info(ptr noundef nonnull %.32.val, ptr noundef %.sink1, ptr noundef %0) #15
  %.sink = load ptr, ptr %.sink1.in, align 8, !tbaa !188
  %30 = tail call i32 @ff_mpv_export_qp_table(ptr noundef nonnull %.32.val, ptr noundef %0, ptr noundef %.sink, i32 noundef 0) #15
  br label %31

31:                                               ; preds = %.sink.split, %23, %26, %17
  %.028 = phi i32 [ %21, %17 ], [ %28, %26 ], [ 0, %23 ], [ 1, %.sink.split ]
  ret i32 %.028
}